target datalayout = "e-m:e-p270:32:32-p271:32:32-p272:64:64-i64:64-i128:128-f80:128-n8:16:32:64-S128"
target triple = "x86_64-pc-linux-gnu"

%struct.normal_encoding = type { %struct.encoding, [256 x i8], ptr, ptr, ptr, ptr, ptr, ptr, ptr, ptr, ptr }
%struct.encoding = type { [3 x ptr], [2 x ptr], ptr, ptr, ptr, ptr, ptr, ptr, ptr, ptr, ptr, ptr, i32, i8, i8 }

; Function Attrs: nounwind uwtable
define internal i32 @unicode_byte_type(i8 noundef signext %0, i8 noundef signext %1) #0 {
  %3 = alloca i32, align 4
  %4 = alloca i8, align 1
  %5 = alloca i8, align 1
  store i8 %0, ptr %4, align 1, !tbaa !13
  store i8 %1, ptr %5, align 1, !tbaa !13
  %6 = load i8, ptr %4, align 1, !tbaa !13
  %7 = zext i8 %6 to i32
  switch i32 %7, label %15 [
    i32 216, label %8
    i32 217, label %8
    i32 218, label %8
    i32 219, label %8
    i32 220, label %9
    i32 221, label %9
    i32 222, label %9
    i32 223, label %9
    i32 255, label %10
  ]

8:                                                ; preds = %2, %2, %2, %2
  store i32 7, ptr %3, align 4
  br label %16

9:                                                ; preds = %2, %2, %2, %2
  store i32 8, ptr %3, align 4
  br label %16

10:                                               ; preds = %2
  %11 = load i8, ptr %5, align 1, !tbaa !13
  %12 = zext i8 %11 to i32
  switch i32 %12, label %14 [
    i32 255, label %13
    i32 254, label %13
  ]

13:                                               ; preds = %10, %10
  store i32 0, ptr %3, align 4
  br label %16

14:                                               ; preds = %10
  br label %15

15:                                               ; preds = %2, %14
  store i32 29, ptr %3, align 4
  br label %16

16:                                               ; preds = %15, %13, %9, %8
  %17 = load i32, ptr %3, align 4
  ret i32 %17
}

; Function Attrs: nounwind uwtable
define internal ptr @little2_skipS(ptr noundef %0, ptr noundef %1) #0 {
  %3 = alloca ptr, align 8
  %4 = alloca ptr, align 8
  store ptr %0, ptr %3, align 8, !tbaa !45
  store ptr %1, ptr %4, align 8, !tbaa !4
  br label %5

5:                                                ; preds = %35, %2
  %6 = load ptr, ptr %4, align 8, !tbaa !4
  %7 = getelementptr inbounds i8, ptr %6, i64 1
  %8 = load i8, ptr %7, align 1, !tbaa !13
  %9 = sext i8 %8 to i32
  %10 = icmp eq i32 %9, 0
  br i1 %10, label %11, label %20

11:                                               ; preds = %5
  %12 = load ptr, ptr %3, align 8, !tbaa !45
  %13 = getelementptr inbounds nuw %struct.normal_encoding, ptr %12, i32 0, i32 1
  %14 = load ptr, ptr %4, align 8, !tbaa !4
  %15 = load i8, ptr %14, align 1, !tbaa !13
  %16 = zext i8 %15 to i64
  %17 = getelementptr inbounds nuw [256 x i8], ptr %13, i64 0, i64 %16
  %18 = load i8, ptr %17, align 1, !tbaa !13
  %19 = zext i8 %18 to i32
  br label %28

20:                                               ; preds = %5
  %21 = load ptr, ptr %4, align 8, !tbaa !4
  %22 = getelementptr inbounds i8, ptr %21, i64 1
  %23 = load i8, ptr %22, align 1, !tbaa !13
  %24 = load ptr, ptr %4, align 8, !tbaa !4
  %25 = getelementptr inbounds i8, ptr %24, i64 0
  %26 = load i8, ptr %25, align 1, !tbaa !13
  %27 = call i32 @unicode_byte_type(i8 noundef signext %23, i8 noundef signext %26)
  br label %28

28:                                               ; preds = %20, %11
  %29 = phi i32 [ %19, %11 ], [ %27, %20 ]
  switch i32 %29, label %33 [
    i32 10, label %30
    i32 9, label %30
    i32 21, label %30
  ]

30:                                               ; preds = %28, %28, %28
  %31 = load ptr, ptr %4, align 8, !tbaa !4
  %32 = getelementptr inbounds i8, ptr %31, i64 2
  store ptr %32, ptr %4, align 8, !tbaa !4
  br label %35

33:                                               ; preds = %28
  %34 = load ptr, ptr %4, align 8, !tbaa !4
  ret ptr %34

35:                                               ; preds = %30
  br label %5
}