; Function Attrs: nofree norecurse nosync nounwind memory(argmem: read) uwtable
define internal ptr @little2_skipS(ptr noundef readonly captures(none) %0, ptr noundef readonly %1) #7 {
  %3 = getelementptr inbounds nuw i8, ptr %0, i64 128
  %4 = getelementptr inbounds nuw i8, ptr %1, i64 1
  %5 = load i8, ptr %4, align 1, !tbaa !9
  %cond10 = icmp eq i8 %5, 0
  br i1 %cond10, label %unicode_byte_type.exit, label %unicode_byte_type.exit.thread

unicode_byte_type.exit:                           ; preds = %2, %10
  %.011 = phi ptr [ %11, %10 ], [ %1, %2 ]
  %6 = load i8, ptr %.011, align 1, !tbaa !9
  %7 = zext i8 %6 to i64
  %8 = getelementptr inbounds nuw [256 x i8], ptr %3, i64 0, i64 %7
  %9 = load i8, ptr %8, align 1, !tbaa !9
  switch i8 %9, label %unicode_byte_type.exit.thread [
    i8 10, label %10
    i8 9, label %10
    i8 21, label %10
  ]

10:                                               ; preds = %unicode_byte_type.exit, %unicode_byte_type.exit, %unicode_byte_type.exit
  %11 = getelementptr inbounds nuw i8, ptr %.011, i64 2
  %12 = getelementptr inbounds nuw i8, ptr %.011, i64 3
  %13 = load i8, ptr %12, align 1, !tbaa !9
  %cond = icmp eq i8 %13, 0
  br i1 %cond, label %unicode_byte_type.exit, label %unicode_byte_type.exit.thread

unicode_byte_type.exit.thread:                    ; preds = %unicode_byte_type.exit, %10, %2
  %.0.lcssa = phi ptr [ %1, %2 ], [ %.011, %unicode_byte_type.exit ], [ %11, %10 ]
  ret ptr %.0.lcssa
}